; Function Attrs: mustprogress norecurse uwtable
define internal fastcc void @"_ZZL35TestGetDescendantsAsInstanceProxiesvENK3$_0clERKNSt7__cxx1112basic_stringIcSt11char_traitsIcESaIcEEE"(ptr dead_on_unwind noalias nonnull writable align 8 %0, ptr %.0.val, ptr noundef nonnull align 8 dereferenceable(32) %1) unnamed_addr #3 align 2 personality ptr @__gxx_personality_v0 {
  %3 = alloca %"class.pxrInternal_v0_24__pxrReserved__::TfCallContext", align 8
  %4 = alloca %"class.pxrInternal_v0_24__pxrReserved__::SdfPath", align 4
  call void @llvm.lifetime.start.p0(i64 40, ptr nonnull %3)
  %.not.i = icmp eq ptr %.0.val, null
  br i1 %.not.i, label %5, label %_ZNK32pxrInternal_v0_24__pxrReserved__8TfRefPtrINS_8UsdStageEEptEv.exit

5:                                                ; preds = %2
  store ptr @.str.27, ptr %3, align 8
  %6 = getelementptr inbounds nuw i8, ptr %3, i64 8
  store ptr @__func__._ZNK32pxrInternal_v0_24__pxrReserved__8TfRefPtrINS_8UsdStageEEptEv, ptr %6, align 8
  %7 = getelementptr inbounds nuw i8, ptr %3, i64 16
  store i64 936, ptr %7, align 8
  %8 = getelementptr inbounds nuw i8, ptr %3, i64 24
  store ptr @__PRETTY_FUNCTION__._ZNK32pxrInternal_v0_24__pxrReserved__8TfRefPtrINS_8UsdStageEEptEv, ptr %8, align 8
  %9 = getelementptr inbounds nuw i8, ptr %3, i64 32
  store i8 0, ptr %9, align 8
  call void @_ZN32pxrInternal_v0_24__pxrReserved__40Tf_PostNullSmartPtrDereferenceFatalErrorERKNS_13TfCallContextEPKc(ptr noundef nonnull align 8 dereferenceable(33) %3, ptr noundef nonnull @_ZTSN32pxrInternal_v0_24__pxrReserved__8TfRefPtrINS_8UsdStageEEE) #20
  unreachable

_ZNK32pxrInternal_v0_24__pxrReserved__8TfRefPtrINS_8UsdStageEEptEv.exit: ; preds = %2
  call void @llvm.lifetime.end.p0(i64 40, ptr nonnull %3)
  call void @_ZN32pxrInternal_v0_24__pxrReserved__7SdfPathC1ERKNSt7__cxx1112basic_stringIcSt11char_traitsIcESaIcEEE(ptr noundef nonnull align 4 dereferenceable(8) %4, ptr noundef nonnull align 8 dereferenceable(32) %1)
  invoke void @_ZNK32pxrInternal_v0_24__pxrReserved__8UsdStage13GetPrimAtPathERKNS_7SdfPathE(ptr dead_on_unwind nonnull writable sret(%"class.pxrInternal_v0_24__pxrReserved__::UsdPrim") align 8 %0, ptr noundef nonnull align 8 dereferenceable(1282) %.0.val, ptr noundef nonnull align 4 dereferenceable(8) %4)
          to label %10 unwind label %29

10:                                               ; preds = %_ZNK32pxrInternal_v0_24__pxrReserved__8TfRefPtrINS_8UsdStageEEptEv.exit
  %11 = load i32, ptr %4, align 4
  %.not.i.i = icmp eq i32 %11, 0
  br i1 %.not.i.i, label %_ZN32pxrInternal_v0_24__pxrReserved__7SdfPathD2Ev.exit, label %12

12:                                               ; preds = %10
  %13 = and i32 %11, 255
  %14 = lshr i32 %11, 8
  %15 = zext nneg i32 %13 to i64
  %16 = getelementptr inbounds nuw [257 x ptr], ptr @_ZN32pxrInternal_v0_24__pxrReserved__8Sdf_PoolINS_15Sdf_PathPrimTagELj24ELj8ELj16384EE13_regionStartsE, i64 0, i64 %15
  %17 = load ptr, ptr %16, align 8
  %18 = mul nuw nsw i32 %14, 24
  %19 = zext nneg i32 %18 to i64
  %20 = getelementptr inbounds nuw i8, ptr %17, i64 %19
  %21 = getelementptr inbounds nuw i8, ptr %20, i64 8
  %22 = atomicrmw sub ptr %21, i32 1 seq_cst, align 4
  %23 = and i32 %22, 2147483647
  %24 = icmp eq i32 %23, 1
  br i1 %24, label %25, label %_ZN32pxrInternal_v0_24__pxrReserved__7SdfPathD2Ev.exit

25:                                               ; preds = %12
  invoke void @_ZNK32pxrInternal_v0_24__pxrReserved__12Sdf_PathNode8_DestroyEv(ptr noundef nonnull align 8 dereferenceable(16) %20)
          to label %_ZN32pxrInternal_v0_24__pxrReserved__7SdfPathD2Ev.exit unwind label %26

26:                                               ; preds = %25
  %27 = landingpad { ptr, i32 }
          catch ptr null
  %28 = extractvalue { ptr, i32 } %27, 0
  call void @__clang_call_terminate(ptr %28) #21
  unreachable

_ZN32pxrInternal_v0_24__pxrReserved__7SdfPathD2Ev.exit: ; preds = %10, %12, %25
  ret void

29:                                               ; preds = %_ZNK32pxrInternal_v0_24__pxrReserved__8TfRefPtrINS_8UsdStageEEptEv.exit
  %30 = landingpad { ptr, i32 }
          cleanup
  call void @_ZN32pxrInternal_v0_24__pxrReserved__7SdfPathD2Ev(ptr noundef nonnull align 4 dereferenceable(8) %4) #19
  resume { ptr, i32 } %30
}